
solver:     file format elf64-x86-64


Disassembly of section .init:

0000000000001000 <_init>:
    1000:	f3 0f 1e fa          	endbr64 
    1004:	48 83 ec 08          	sub    rsp,0x8
    1008:	48 8b 05 d9 2f 00 00 	mov    rax,QWORD PTR [rip+0x2fd9]        # 3fe8 <__gmon_start__@Base>
    100f:	48 85 c0             	test   rax,rax
    1012:	74 02                	je     1016 <_init+0x16>
    1014:	ff d0                	call   rax
    1016:	48 83 c4 08          	add    rsp,0x8
    101a:	c3                   	ret    

Disassembly of section .plt:

0000000000001020 <.plt>:
    1020:	ff 35 92 2f 00 00    	push   QWORD PTR [rip+0x2f92]        # 3fb8 <_GLOBAL_OFFSET_TABLE_+0x8>
    1026:	f2 ff 25 93 2f 00 00 	bnd jmp QWORD PTR [rip+0x2f93]        # 3fc0 <_GLOBAL_OFFSET_TABLE_+0x10>
    102d:	0f 1f 00             	nop    DWORD PTR [rax]
    1030:	f3 0f 1e fa          	endbr64 
    1034:	68 00 00 00 00       	push   0x0
    1039:	f2 e9 e1 ff ff ff    	bnd jmp 1020 <_init+0x20>
    103f:	90                   	nop

Disassembly of section .plt.got:

0000000000001040 <printf@plt>:
    1040:	f3 0f 1e fa          	endbr64 
    1044:	f2 ff 25 95 2f 00 00 	bnd jmp QWORD PTR [rip+0x2f95]        # 3fe0 <printf@GLIBC_2.2.5>
    104b:	0f 1f 44 00 00       	nop    DWORD PTR [rax+rax*1+0x0]

0000000000001050 <__cxa_finalize@plt>:
    1050:	f3 0f 1e fa          	endbr64 
    1054:	f2 ff 25 9d 2f 00 00 	bnd jmp QWORD PTR [rip+0x2f9d]        # 3ff8 <__cxa_finalize@GLIBC_2.2.5>
    105b:	0f 1f 44 00 00       	nop    DWORD PTR [rax+rax*1+0x0]

Disassembly of section .plt.sec:

0000000000001060 <__stack_chk_fail@plt>:
    1060:	f3 0f 1e fa          	endbr64 
    1064:	f2 ff 25 5d 2f 00 00 	bnd jmp QWORD PTR [rip+0x2f5d]        # 3fc8 <__stack_chk_fail@GLIBC_2.4>
    106b:	0f 1f 44 00 00       	nop    DWORD PTR [rax+rax*1+0x0]

Disassembly of section .text:

0000000000001070 <_start>:
    1070:	f3 0f 1e fa          	endbr64 
    1074:	31 ed                	xor    ebp,ebp
    1076:	49 89 d1             	mov    r9,rdx
    1079:	5e                   	pop    rsi
    107a:	48 89 e2             	mov    rdx,rsp
    107d:	48 83 e4 f0          	and    rsp,0xfffffffffffffff0
    1081:	50                   	push   rax
    1082:	54                   	push   rsp
    1083:	45 31 c0             	xor    r8d,r8d
    1086:	31 c9                	xor    ecx,ecx
    1088:	48 8d 3d 42 01 00 00 	lea    rdi,[rip+0x142]        # 11d1 <main>
    108f:	ff 15 3b 2f 00 00    	call   QWORD PTR [rip+0x2f3b]        # 3fd0 <__libc_start_main@GLIBC_2.34>
    1095:	f4                   	hlt    
    1096:	66 2e 0f 1f 84 00 00 	cs nop WORD PTR [rax+rax*1+0x0]
    109d:	00 00 00 

00000000000010a0 <deregister_tm_clones>:
    10a0:	48 8d 3d 69 2f 00 00 	lea    rdi,[rip+0x2f69]        # 4010 <__TMC_END__>
    10a7:	48 8d 05 62 2f 00 00 	lea    rax,[rip+0x2f62]        # 4010 <__TMC_END__>
    10ae:	48 39 f8             	cmp    rax,rdi
    10b1:	74 15                	je     10c8 <deregister_tm_clones+0x28>
    10b3:	48 8b 05 1e 2f 00 00 	mov    rax,QWORD PTR [rip+0x2f1e]        # 3fd8 <_ITM_deregisterTMCloneTable@Base>
    10ba:	48 85 c0             	test   rax,rax
    10bd:	74 09                	je     10c8 <deregister_tm_clones+0x28>
    10bf:	ff e0                	jmp    rax
    10c1:	0f 1f 80 00 00 00 00 	nop    DWORD PTR [rax+0x0]
    10c8:	c3                   	ret    
    10c9:	0f 1f 80 00 00 00 00 	nop    DWORD PTR [rax+0x0]

00000000000010d0 <register_tm_clones>:
    10d0:	48 8d 3d 39 2f 00 00 	lea    rdi,[rip+0x2f39]        # 4010 <__TMC_END__>
    10d7:	48 8d 35 32 2f 00 00 	lea    rsi,[rip+0x2f32]        # 4010 <__TMC_END__>
    10de:	48 29 fe             	sub    rsi,rdi
    10e1:	48 89 f0             	mov    rax,rsi
    10e4:	48 c1 ee 3f          	shr    rsi,0x3f
    10e8:	48 c1 f8 03          	sar    rax,0x3
    10ec:	48 01 c6             	add    rsi,rax
    10ef:	48 d1 fe             	sar    rsi,1
    10f2:	74 14                	je     1108 <register_tm_clones+0x38>
    10f4:	48 8b 05 f5 2e 00 00 	mov    rax,QWORD PTR [rip+0x2ef5]        # 3ff0 <_ITM_registerTMCloneTable@Base>
    10fb:	48 85 c0             	test   rax,rax
    10fe:	74 08                	je     1108 <register_tm_clones+0x38>
    1100:	ff e0                	jmp    rax
    1102:	66 0f 1f 44 00 00    	nop    WORD PTR [rax+rax*1+0x0]
    1108:	c3                   	ret    
    1109:	0f 1f 80 00 00 00 00 	nop    DWORD PTR [rax+0x0]

0000000000001110 <__do_global_dtors_aux>:
    1110:	f3 0f 1e fa          	endbr64 
    1114:	80 3d f5 2e 00 00 00 	cmp    BYTE PTR [rip+0x2ef5],0x0        # 4010 <__TMC_END__>
    111b:	75 2b                	jne    1148 <__do_global_dtors_aux+0x38>
    111d:	55                   	push   rbp
    111e:	48 83 3d d2 2e 00 00 	cmp    QWORD PTR [rip+0x2ed2],0x0        # 3ff8 <__cxa_finalize@GLIBC_2.2.5>
    1125:	00 
    1126:	48 89 e5             	mov    rbp,rsp
    1129:	74 0c                	je     1137 <__do_global_dtors_aux+0x27>
    112b:	48 8b 3d d6 2e 00 00 	mov    rdi,QWORD PTR [rip+0x2ed6]        # 4008 <__dso_handle>
    1132:	e8 19 ff ff ff       	call   1050 <__cxa_finalize@plt>
    1137:	e8 64 ff ff ff       	call   10a0 <deregister_tm_clones>
    113c:	c6 05 cd 2e 00 00 01 	mov    BYTE PTR [rip+0x2ecd],0x1        # 4010 <__TMC_END__>
    1143:	5d                   	pop    rbp
    1144:	c3                   	ret    
    1145:	0f 1f 00             	nop    DWORD PTR [rax]
    1148:	c3                   	ret    
    1149:	0f 1f 80 00 00 00 00 	nop    DWORD PTR [rax+0x0]

0000000000001150 <frame_dummy>:
    1150:	f3 0f 1e fa          	endbr64 
    1154:	e9 77 ff ff ff       	jmp    10d0 <register_tm_clones>

0000000000001159 <solver>:
    1159:	f3 0f 1e fa          	endbr64 
    115d:	55                   	push   rbp
    115e:	48 89 e5             	mov    rbp,rsp
    1161:	48 83 ec 20          	sub    rsp,0x20
    1165:	48 89 7d e8          	mov    QWORD PTR [rbp-0x18],rdi
    1169:	64 48 8b 04 25 28 00 	mov    rax,QWORD PTR fs:0x28
    1170:	00 00 
    1172:	48 89 45 f8          	mov    QWORD PTR [rbp-0x8],rax
    1176:	31 c0                	xor    eax,eax
    1178:	48 c7 45 f0 00 00 00 	mov    QWORD PTR [rbp-0x10],0x0
    117f:	00 
    1180:	48 8d 45 f0          	lea    rax,[rbp-0x10]
    1184:	48 83 c0 18          	add    rax,0x18
    1188:	48 8b 08             	mov    rcx,QWORD PTR [rax]
    118b:	48 8d 45 f0          	lea    rax,[rbp-0x10]
    118f:	48 83 c0 10          	add    rax,0x10
    1193:	48 8b 10             	mov    rdx,QWORD PTR [rax]
    1196:	48 8d 45 f0          	lea    rax,[rbp-0x10]
    119a:	48 83 c0 08          	add    rax,0x8
    119e:	48 8b 00             	mov    rax,QWORD PTR [rax]
    11a1:	4c 8b 45 e8          	mov    r8,QWORD PTR [rbp-0x18]
    11a5:	48 89 c6             	mov    rsi,rax
    11a8:	48 8d 05 59 0e 00 00 	lea    rax,[rip+0xe59]        # 2008 <_IO_stdin_used+0x8>
    11af:	48 89 c7             	mov    rdi,rax
    11b2:	b8 00 00 00 00       	mov    eax,0x0
    11b7:	41 ff d0             	call   r8
    11ba:	90                   	nop
    11bb:	48 8b 45 f8          	mov    rax,QWORD PTR [rbp-0x8]
    11bf:	64 48 2b 04 25 28 00 	sub    rax,QWORD PTR fs:0x28
    11c6:	00 00 
    11c8:	74 05                	je     11cf <solver+0x76>
    11ca:	e8 91 fe ff ff       	call   1060 <__stack_chk_fail@plt>
    11cf:	c9                   	leave  
    11d0:	c3                   	ret    

00000000000011d1 <main>:
    11d1:	f3 0f 1e fa          	endbr64 
    11d5:	55                   	push   rbp
    11d6:	48 89 e5             	mov    rbp,rsp
    11d9:	48 83 ec 20          	sub    rsp,0x20
    11dd:	64 48 8b 04 25 28 00 	mov    rax,QWORD PTR fs:0x28
    11e4:	00 00 
    11e6:	48 89 45 f8          	mov    QWORD PTR [rbp-0x8],rax
    11ea:	31 c0                	xor    eax,eax
    11ec:	48 b8 2a 2a 20 6d 61 	movabs rax,0x206e69616d202a2a
    11f3:	69 6e 20 
    11f6:	48 ba 3d 20 25 70 0a 	movabs rdx,0xa7025203d
    11fd:	00 00 00 
    1200:	48 89 45 e0          	mov    QWORD PTR [rbp-0x20],rax
    1204:	48 89 55 e8          	mov    QWORD PTR [rbp-0x18],rdx
    1208:	48 8d 45 e0          	lea    rax,[rbp-0x20]
    120c:	48 8d 15 be ff ff ff 	lea    rdx,[rip+0xffffffffffffffbe]        # 11d1 <main>
    1213:	48 89 d6             	mov    rsi,rdx
    1216:	48 89 c7             	mov    rdi,rax
    1219:	b8 00 00 00 00       	mov    eax,0x0
    121e:	e8 1d fe ff ff       	call   1040 <printf@plt>
    1223:	48 8b 05 b6 2d 00 00 	mov    rax,QWORD PTR [rip+0x2db6]        # 3fe0 <printf@GLIBC_2.2.5>
    122a:	48 89 c7             	mov    rdi,rax
    122d:	e8 27 ff ff ff       	call   1159 <solver>
    1232:	b8 00 00 00 00       	mov    eax,0x0
    1237:	48 8b 55 f8          	mov    rdx,QWORD PTR [rbp-0x8]
    123b:	64 48 2b 14 25 28 00 	sub    rdx,QWORD PTR fs:0x28
    1242:	00 00 
    1244:	74 05                	je     124b <main+0x7a>
    1246:	e8 15 fe ff ff       	call   1060 <__stack_chk_fail@plt>
    124b:	c9                   	leave  
    124c:	c3                   	ret    

Disassembly of section .fini:

0000000000001250 <_fini>:
    1250:	f3 0f 1e fa          	endbr64 
    1254:	48 83 ec 08          	sub    rsp,0x8
    1258:	48 83 c4 08          	add    rsp,0x8
    125c:	c3                   	ret    
